target datalayout = "e-m:e-p270:32:32-p271:32:32-p272:64:64-i64:64-i128:128-f80:128-n8:16:32:64-S128"
target triple = "x86_64-pc-linux-gnu"

%struct.AVChannelLayout = type { i32, i32, %union.anon.1, ptr }
%union.anon.1 = type { i64 }
%struct.AVFilterContext = type { ptr, ptr, ptr, ptr, ptr, i32, ptr, ptr, i32, ptr, ptr, i32, i32, ptr, ptr, ptr, ptr, i32, ptr, i32, i32 }
%struct.AVSyncTestContext = type { ptr, i32, i32, %struct.AVRational, i32, i64, i64, i64, float, i32, i32, i32, i32, i32, i32, i32, %struct.AVRational, %struct.AVRational, %struct.AVRational, %struct.AVRational, i64, [3 x [4 x i8]], %struct.FFDrawContext, %struct.FFDrawColor, %struct.FFDrawColor, %struct.FFDrawColor }
%struct.AVRational = type { i32, i32 }
%struct.FFDrawContext = type { ptr, i32, i32, [4 x i32], [4 x i8], [4 x i8], i8, i8, i32, i32, i32, [3 x [3 x double]] }
%struct.FFDrawColor = type { [4 x i8], [4 x %union.anon.2] }
%union.anon.2 = type { [4 x i32] }
%struct.AVFilterFormatsConfig = type { ptr, ptr, ptr, ptr, ptr }
%struct.AVFilterLink = type { ptr, ptr, ptr, ptr, i32, i32, i32, i32, %struct.AVRational, i32, i32, i32, %struct.AVChannelLayout, %struct.AVRational, ptr, i32, %struct.AVFilterFormatsConfig, %struct.AVFilterFormatsConfig }

; Function Attrs: cold nounwind optsize uwtable
define internal i32 @aconfig_props(ptr noundef %0) #0 {
  %2 = alloca ptr, align 8
  %3 = alloca ptr, align 8
  %4 = alloca ptr, align 8
  %5 = alloca %struct.AVRational, align 4
  store ptr %0, ptr %2, align 8, !tbaa !40
  call void @llvm.lifetime.start.p0(i64 8, ptr %3) #12
  %6 = load ptr, ptr %2, align 8, !tbaa !40
  %7 = getelementptr inbounds nuw %struct.AVFilterLink, ptr %6, i32 0, i32 0
  %8 = load ptr, ptr %7, align 8, !tbaa !45
  store ptr %8, ptr %3, align 8, !tbaa !4
  call void @llvm.lifetime.start.p0(i64 8, ptr %4) #12
  %9 = load ptr, ptr %3, align 8, !tbaa !4
  %10 = getelementptr inbounds nuw %struct.AVFilterContext, ptr %9, i32 0, i32 9
  %11 = load ptr, ptr %10, align 8, !tbaa !12
  store ptr %11, ptr %4, align 8, !tbaa !24
  %12 = load ptr, ptr %4, align 8, !tbaa !24
  %13 = getelementptr inbounds nuw %struct.AVSyncTestContext, ptr %12, i32 0, i32 4
  %14 = load i32, ptr %13, align 8, !tbaa !26
  %15 = load ptr, ptr %2, align 8, !tbaa !40
  %16 = getelementptr inbounds nuw %struct.AVFilterLink, ptr %15, i32 0, i32 11
  store i32 %14, ptr %16, align 8, !tbaa !51
  %17 = load ptr, ptr %2, align 8, !tbaa !40
  %18 = getelementptr inbounds nuw %struct.AVFilterLink, ptr %17, i32 0, i32 13
  %19 = getelementptr inbounds nuw %struct.AVRational, ptr %5, i32 0, i32 0
  store i32 1, ptr %19, align 4, !tbaa !52
  %20 = getelementptr inbounds nuw %struct.AVRational, ptr %5, i32 0, i32 1
  %21 = load ptr, ptr %4, align 8, !tbaa !24
  %22 = getelementptr inbounds nuw %struct.AVSyncTestContext, ptr %21, i32 0, i32 4
  %23 = load i32, ptr %22, align 8, !tbaa !26
  store i32 %23, ptr %20, align 4, !tbaa !53
  call void @llvm.memcpy.p0.p0.i64(ptr align 8 %18, ptr align 4 %5, i64 8, i1 false), !tbaa.struct !54
  %24 = load ptr, ptr %4, align 8, !tbaa !24
  %25 = getelementptr inbounds nuw %struct.AVSyncTestContext, ptr %24, i32 0, i32 4
  %26 = load i32, ptr %25, align 8, !tbaa !26
  %27 = sext i32 %26 to i64
  %28 = load ptr, ptr %4, align 8, !tbaa !24
  %29 = getelementptr inbounds nuw %struct.AVSyncTestContext, ptr %28, i32 0, i32 3
  %30 = getelementptr inbounds nuw %struct.AVRational, ptr %29, i32 0, i32 1
  %31 = load i32, ptr %30, align 4, !tbaa !55
  %32 = sext i32 %31 to i64
  %33 = load ptr, ptr %4, align 8, !tbaa !24
  %34 = getelementptr inbounds nuw %struct.AVSyncTestContext, ptr %33, i32 0, i32 3
  %35 = getelementptr inbounds nuw %struct.AVRational, ptr %34, i32 0, i32 0
  %36 = load i32, ptr %35, align 8, !tbaa !56
  %37 = sext i32 %36 to i64
  %38 = call i64 @av_rescale(i64 noundef %27, i64 noundef %32, i64 noundef %37) #13
  %39 = trunc i64 %38 to i32
  %40 = load ptr, ptr %4, align 8, !tbaa !24
  %41 = getelementptr inbounds nuw %struct.AVSyncTestContext, ptr %40, i32 0, i32 13
  store i32 %39, ptr %41, align 4, !tbaa !57
  %42 = load ptr, ptr %4, align 8, !tbaa !24
  %43 = getelementptr inbounds nuw %struct.AVSyncTestContext, ptr %42, i32 0, i32 5
  %44 = load i64, ptr %43, align 8, !tbaa !42
  %45 = load ptr, ptr %4, align 8, !tbaa !24
  %46 = getelementptr inbounds nuw %struct.AVSyncTestContext, ptr %45, i32 0, i32 4
  %47 = load i32, ptr %46, align 8, !tbaa !26
  %48 = sext i32 %47 to i64
  %49 = call i64 @av_rescale(i64 noundef %44, i64 noundef %48, i64 noundef 1000000) #13
  %50 = load ptr, ptr %4, align 8, !tbaa !24
  %51 = getelementptr inbounds nuw %struct.AVSyncTestContext, ptr %50, i32 0, i32 5
  store i64 %49, ptr %51, align 8, !tbaa !42
  call void @llvm.lifetime.end.p0(i64 8, ptr %4) #12
  call void @llvm.lifetime.end.p0(i64 8, ptr %3) #12
  ret i32 0
}