; Function Attrs: cold mustprogress nofree nosync nounwind optsize willreturn memory(readwrite, inaccessiblemem: none) uwtable
define internal noundef i32 @aconfig_props(ptr noundef captures(none) initializes((64, 68), (96, 104)) %0) #3 {
  %2 = load ptr, ptr %0, align 8, !tbaa !37
  %3 = getelementptr inbounds nuw i8, ptr %2, i64 72
  %4 = load ptr, ptr %3, align 8, !tbaa !4
  %5 = getelementptr inbounds nuw i8, ptr %4, i64 24
  %6 = load i32, ptr %5, align 8, !tbaa !20
  %7 = getelementptr inbounds nuw i8, ptr %0, i64 64
  store i32 %6, ptr %7, align 8, !tbaa !83
  %8 = getelementptr inbounds nuw i8, ptr %0, i64 96
  store i32 1, ptr %8, align 8, !tbaa !28
  %.sroa.2.0..sroa_idx = getelementptr inbounds nuw i8, ptr %0, i64 100
  store i32 %6, ptr %.sroa.2.0..sroa_idx, align 4, !tbaa !28
  %9 = load i32, ptr %5, align 8, !tbaa !20
  %10 = sext i32 %9 to i64
  %11 = getelementptr inbounds nuw i8, ptr %4, i64 16
  %12 = getelementptr inbounds nuw i8, ptr %4, i64 20
  %13 = load i32, ptr %12, align 4, !tbaa !71
  %14 = sext i32 %13 to i64
  %15 = load i32, ptr %11, align 8, !tbaa !70
  %16 = sext i32 %15 to i64
  %17 = tail call i64 @av_rescale(i64 noundef %10, i64 noundef %14, i64 noundef %16) #11
  %18 = trunc i64 %17 to i32
  %19 = getelementptr inbounds nuw i8, ptr %4, i64 76
  store i32 %18, ptr %19, align 4, !tbaa !55
  %20 = getelementptr inbounds nuw i8, ptr %4, i64 32
  %21 = load i64, ptr %20, align 8, !tbaa !34
  %22 = tail call i64 @av_rescale(i64 noundef %21, i64 noundef %10, i64 noundef 1000000) #11
  store i64 %22, ptr %20, align 8, !tbaa !34
  ret i32 0
}